; Function Attrs: mustprogress uwtable
define hidden void @_ZN4cvc58internal6theory7strings5utils6mkUnitENS0_8TypeNodeENS0_12NodeTemplateILb1EEE(ptr dead_on_unwind noalias writable sret(%"class.cvc5::internal::NodeTemplate") align 8 %0, ptr noundef readonly captures(none) %1, ptr noundef readonly captures(none) %2) local_unnamed_addr #4 personality ptr @__gxx_personality_v0 {
  %4 = alloca %"class.cvc5::internal::NodeBuilder", align 8
  %5 = alloca %"class.cvc5::internal::NodeTemplate.94", align 8
  %6 = alloca %"class.cvc5::internal::NodeBuilder", align 8
  %7 = alloca %"class.cvc5::internal::NodeTemplate.94", align 8
  %8 = load ptr, ptr %1, align 8, !tbaa !66
  %9 = getelementptr inbounds nuw i8, ptr %8, i64 8
  %10 = load i64, ptr %9, align 8
  %11 = and i64 %10, 1023
  %12 = icmp eq i64 %11, 13
  br i1 %12, label %_ZNK4cvc58internal8TypeNode8isStringEv.exit, label %_ZNK4cvc58internal8TypeNode8isStringEv.exit.thread

_ZNK4cvc58internal8TypeNode8isStringEv.exit:      ; preds = %3
  %13 = tail call noundef nonnull align 4 dereferenceable(4) ptr @_ZNK4cvc58internal4expr9NodeValue8getConstINS0_12TypeConstantEEERKT_v(ptr noundef nonnull align 8 dereferenceable(24) %8)
  %14 = load i32, ptr %13, align 4, !tbaa !68
  %15 = icmp eq i32 %14, 6
  br i1 %15, label %.noexc, label %_ZNK4cvc58internal8TypeNode8isStringEv.exit.thread

.noexc:                                           ; preds = %_ZNK4cvc58internal8TypeNode8isStringEv.exit
  %16 = load ptr, ptr %2, align 8, !tbaa !8
  call void @llvm.lifetime.start.p0(i64 8, ptr nonnull %7)
  call void @llvm.lifetime.start.p0(i64 128, ptr nonnull %6) #23, !noalias !110
  %17 = getelementptr inbounds nuw i8, ptr %16, i64 16
  %18 = load ptr, ptr %17, align 8, !tbaa !73, !noalias !110
  call void @_ZN4cvc58internal11NodeBuilderC1EPNS0_11NodeManagerENS0_4kind6Kind_tE(ptr noundef nonnull align 8 dereferenceable(124) %6, ptr noundef %18, i32 noundef 337)
  store ptr %16, ptr %7, align 8, !tbaa !23, !noalias !110
  %19 = invoke noundef nonnull align 8 dereferenceable(124) ptr @_ZN4cvc58internal11NodeBuilderlsENS0_12NodeTemplateILb0EEE(ptr noundef nonnull align 8 dereferenceable(124) %6, ptr noundef nonnull %7)
          to label %20 unwind label %23, !noalias !110

20:                                               ; preds = %.noexc
  invoke void @_ZN4cvc58internal11NodeBuilder13constructNodeEv(ptr dead_on_unwind writable sret(%"class.cvc5::internal::NodeTemplate") align 8 %0, ptr noundef nonnull align 8 dereferenceable(124) %6)
          to label %26 unwind label %21

21:                                               ; preds = %20
  %22 = landingpad { ptr, i32 }
          cleanup
  br label %25

23:                                               ; preds = %.noexc
  %24 = landingpad { ptr, i32 }
          cleanup
  br label %25

25:                                               ; preds = %23, %21
  %.pn.i = phi { ptr, i32 } [ %22, %21 ], [ %24, %23 ]
  call void @_ZN4cvc58internal11NodeBuilderD1Ev(ptr noundef nonnull align 8 dereferenceable(124) %6) #23
  call void @llvm.lifetime.end.p0(i64 128, ptr nonnull %6) #23, !noalias !110
  br label %.body

26:                                               ; preds = %20
  call void @_ZN4cvc58internal11NodeBuilderD1Ev(ptr noundef nonnull align 8 dereferenceable(124) %6) #23
  call void @llvm.lifetime.end.p0(i64 128, ptr nonnull %6) #23, !noalias !110
  call void @llvm.lifetime.end.p0(i64 8, ptr nonnull %7)
  br label %38

_ZNK4cvc58internal8TypeNode8isStringEv.exit.thread: ; preds = %3, %_ZNK4cvc58internal8TypeNode8isStringEv.exit
  %27 = load ptr, ptr %2, align 8, !tbaa !8
  call void @llvm.lifetime.start.p0(i64 8, ptr nonnull %5)
  call void @llvm.lifetime.start.p0(i64 128, ptr nonnull %4) #23, !noalias !113
  %28 = getelementptr inbounds nuw i8, ptr %27, i64 16
  %29 = load ptr, ptr %28, align 8, !tbaa !73, !noalias !113
  call void @_ZN4cvc58internal11NodeBuilderC1EPNS0_11NodeManagerENS0_4kind6Kind_tE(ptr noundef nonnull align 8 dereferenceable(124) %4, ptr noundef %29, i32 noundef 344)
  store ptr %27, ptr %5, align 8, !tbaa !23, !noalias !113
  %30 = invoke noundef nonnull align 8 dereferenceable(124) ptr @_ZN4cvc58internal11NodeBuilderlsENS0_12NodeTemplateILb0EEE(ptr noundef nonnull align 8 dereferenceable(124) %4, ptr noundef nonnull %5)
          to label %31 unwind label %34, !noalias !113

31:                                               ; preds = %_ZNK4cvc58internal8TypeNode8isStringEv.exit.thread
  invoke void @_ZN4cvc58internal11NodeBuilder13constructNodeEv(ptr dead_on_unwind writable sret(%"class.cvc5::internal::NodeTemplate") align 8 %0, ptr noundef nonnull align 8 dereferenceable(124) %4)
          to label %37 unwind label %32

32:                                               ; preds = %31
  %33 = landingpad { ptr, i32 }
          cleanup
  br label %36

34:                                               ; preds = %_ZNK4cvc58internal8TypeNode8isStringEv.exit.thread
  %35 = landingpad { ptr, i32 }
          cleanup
  br label %36

36:                                               ; preds = %34, %32
  %.pn.i3 = phi { ptr, i32 } [ %33, %32 ], [ %35, %34 ]
  call void @_ZN4cvc58internal11NodeBuilderD1Ev(ptr noundef nonnull align 8 dereferenceable(124) %4) #23
  call void @llvm.lifetime.end.p0(i64 128, ptr nonnull %4) #23, !noalias !113
  br label %.body

37:                                               ; preds = %31
  call void @_ZN4cvc58internal11NodeBuilderD1Ev(ptr noundef nonnull align 8 dereferenceable(124) %4) #23
  call void @llvm.lifetime.end.p0(i64 128, ptr nonnull %4) #23, !noalias !113
  call void @llvm.lifetime.end.p0(i64 8, ptr nonnull %5)
  br label %38

38:                                               ; preds = %37, %26
  ret void

.body:                                            ; preds = %36, %25
  %.pn = phi { ptr, i32 } [ %.pn.i, %25 ], [ %.pn.i3, %36 ]
  resume { ptr, i32 } %.pn
}